target datalayout = "e-m:e-p270:32:32-p271:32:32-p272:64:64-i64:64-i128:128-f80:128-n8:16:32:64-S128"
target triple = "x86_64-pc-linux-gnu"

%struct.lean_object = type { i32, i32 }
%"struct.lean::mpz_object" = type { %struct.lean_object, %"class.lean::mpz" }
%"class.lean::mpz" = type { [1 x %struct.__mpz_struct] }
%struct.__mpz_struct = type { i32, i32, ptr }
%"class.lean::compacted_region" = type { ptr, i8, %"class.std::function", ptr, ptr, ptr }
%"class.std::function" = type { %"class.std::_Function_base", ptr }
%"class.std::_Function_base" = type { %"union.std::_Any_data", ptr }
%"union.std::_Any_data" = type { %"union.std::_Nocopy_types" }
%"union.std::_Nocopy_types" = type { { i64, i64 } }

; Function Attrs: inlinehint mustprogress nounwind uwtable
define linkonce_odr hidden void @_ZN4lean16compacted_region4moveEm(ptr noundef nonnull align 8 dereferenceable(72) %0, i64 noundef %1) #5 comdat align 2 {
  %3 = alloca ptr, align 8
  %4 = alloca i64, align 8
  %5 = alloca i64, align 8
  store ptr %0, ptr %3, align 8, !tbaa !106
  store i64 %1, ptr %4, align 8, !tbaa !45
  %6 = load ptr, ptr %3, align 8
  call void @llvm.lifetime.start.p0(i64 8, ptr %5) #19
  %7 = load i64, ptr %4, align 8, !tbaa !45
  %8 = urem i64 %7, 8
  store i64 %8, ptr %5, align 8, !tbaa !45
  %9 = load i64, ptr %5, align 8, !tbaa !45
  %10 = icmp ne i64 %9, 0
  br i1 %10, label %11, label %16

11:                                               ; preds = %2
  %12 = load i64, ptr %4, align 8, !tbaa !45
  %13 = add i64 %12, 8
  %14 = load i64, ptr %5, align 8, !tbaa !45
  %15 = sub i64 %13, %14
  store i64 %15, ptr %4, align 8, !tbaa !45
  br label %16

16:                                               ; preds = %11, %2
  %17 = getelementptr inbounds nuw %"class.lean::compacted_region", ptr %6, i32 0, i32 4
  %18 = load ptr, ptr %17, align 8, !tbaa !116
  %19 = load i64, ptr %4, align 8, !tbaa !45
  %20 = getelementptr inbounds nuw i8, ptr %18, i64 %19
  %21 = getelementptr inbounds nuw %"class.lean::compacted_region", ptr %6, i32 0, i32 4
  store ptr %20, ptr %21, align 8, !tbaa !116
  call void @llvm.lifetime.end.p0(i64 8, ptr %5) #19
  ret void
}

; Function Attrs: inlinehint mustprogress nounwind willreturn memory(read) uwtable
define available_externally i64 @__gmpz_size(ptr noundef %0) #13 {
  %2 = alloca ptr, align 8
  store ptr %0, ptr %2, align 8, !tbaa !8
  %3 = load ptr, ptr %2, align 8, !tbaa !8
  %4 = getelementptr inbounds nuw %struct.__mpz_struct, ptr %3, i32 0, i32 1
  %5 = load i32, ptr %4, align 4, !tbaa !100
  %6 = icmp sge i32 %5, 0
  br i1 %6, label %7, label %11

7:                                                ; preds = %1
  %8 = load ptr, ptr %2, align 8, !tbaa !8
  %9 = getelementptr inbounds nuw %struct.__mpz_struct, ptr %8, i32 0, i32 1
  %10 = load i32, ptr %9, align 4, !tbaa !100
  br label %16

11:                                               ; preds = %1
  %12 = load ptr, ptr %2, align 8, !tbaa !8
  %13 = getelementptr inbounds nuw %struct.__mpz_struct, ptr %12, i32 0, i32 1
  %14 = load i32, ptr %13, align 4, !tbaa !100
  %15 = sub nsw i32 0, %14
  br label %16

16:                                               ; preds = %11, %7
  %17 = phi i32 [ %10, %7 ], [ %15, %11 ]
  %18 = sext i32 %17 to i64
  ret i64 %18
}

; Function Attrs: inlinehint mustprogress nounwind uwtable
define linkonce_odr hidden noundef ptr @_ZN4lean6to_mpzEP11lean_object(ptr noundef %0) #5 comdat {
  %2 = alloca ptr, align 8
  store ptr %0, ptr %2, align 8, !tbaa !8
  %3 = load ptr, ptr %2, align 8, !tbaa !8
  ret ptr %3
}

; Function Attrs: mustprogress uwtable
define void @_ZN4lean16compacted_region7fix_mpzEP11lean_object(ptr noundef nonnull align 8 dereferenceable(72) %0, ptr noundef %1) #0 align 2 {
  %3 = alloca ptr, align 8
  %4 = alloca ptr, align 8
  %5 = alloca ptr, align 8
  store ptr %0, ptr %3, align 8, !tbaa !106
  store ptr %1, ptr %4, align 8, !tbaa !8
  %6 = load ptr, ptr %3, align 8
  call void @llvm.lifetime.start.p0(i64 8, ptr %5) #19
  %7 = load ptr, ptr %4, align 8, !tbaa !8
  %8 = call noundef ptr @_ZN4lean6to_mpzEP11lean_object(ptr noundef %7)
  %9 = getelementptr inbounds nuw %"struct.lean::mpz_object", ptr %8, i32 0, i32 1
  %10 = getelementptr inbounds nuw %"class.lean::mpz", ptr %9, i32 0, i32 0
  %11 = getelementptr inbounds [1 x %struct.__mpz_struct], ptr %10, i64 0, i64 0
  store ptr %11, ptr %5, align 8, !tbaa !8
  %12 = getelementptr inbounds nuw %"class.lean::compacted_region", ptr %6, i32 0, i32 3
  %13 = load ptr, ptr %12, align 8, !tbaa !115
  %14 = load ptr, ptr %5, align 8, !tbaa !8
  %15 = getelementptr inbounds nuw %struct.__mpz_struct, ptr %14, i32 0, i32 2
  %16 = load ptr, ptr %15, align 8, !tbaa !96
  %17 = ptrtoint ptr %16 to i64
  %18 = getelementptr inbounds nuw i8, ptr %13, i64 %17
  %19 = getelementptr inbounds nuw %"class.lean::compacted_region", ptr %6, i32 0, i32 0
  %20 = load ptr, ptr %19, align 8, !tbaa !110
  %21 = ptrtoint ptr %20 to i64
  %22 = sub i64 0, %21
  %23 = getelementptr inbounds i8, ptr %18, i64 %22
  %24 = load ptr, ptr %5, align 8, !tbaa !8
  %25 = getelementptr inbounds nuw %struct.__mpz_struct, ptr %24, i32 0, i32 2
  store ptr %23, ptr %25, align 8, !tbaa !96
  %26 = load ptr, ptr %4, align 8, !tbaa !8
  %27 = call noundef ptr @_ZN4lean6to_mpzEP11lean_object(ptr noundef %26)
  %28 = getelementptr inbounds nuw %"struct.lean::mpz_object", ptr %27, i32 0, i32 1
  %29 = getelementptr inbounds nuw %"class.lean::mpz", ptr %28, i32 0, i32 0
  %30 = getelementptr inbounds [1 x %struct.__mpz_struct], ptr %29, i64 0, i64 0
  %31 = call i64 @__gmpz_size(ptr noundef %30) #24
  %32 = mul i64 8, %31
  %33 = add i64 24, %32
  call void @_ZN4lean16compacted_region4moveEm(ptr noundef nonnull align 8 dereferenceable(72) %6, i64 noundef %33)
  call void @llvm.lifetime.end.p0(i64 8, ptr %5) #19
  ret void
}