; Function Attrs: mustprogress nofree norecurse nosync nounwind willreturn memory(argmem: readwrite) uwtable
define void @_ZN4lean16compacted_region7fix_mpzEP11lean_object(ptr noundef nonnull align 8 captures(none) dereferenceable(72) %0, ptr noundef captures(none) %1) local_unnamed_addr #16 align 2 {
  %3 = getelementptr inbounds nuw i8, ptr %0, i64 48
  %4 = load ptr, ptr %3, align 8, !tbaa !104
  %5 = getelementptr inbounds nuw i8, ptr %1, i64 16
  %6 = load ptr, ptr %5, align 8, !tbaa !84
  %7 = ptrtoint ptr %6 to i64
  %8 = getelementptr inbounds nuw i8, ptr %4, i64 %7
  %9 = load ptr, ptr %0, align 8, !tbaa !96
  %10 = ptrtoint ptr %9 to i64
  %11 = sub i64 0, %10
  %12 = getelementptr inbounds i8, ptr %8, i64 %11
  store ptr %12, ptr %5, align 8, !tbaa !84
  %13 = getelementptr inbounds nuw i8, ptr %1, i64 12
  %14 = load i32, ptr %13, align 4, !tbaa !81
  %15 = tail call i32 @llvm.abs.i32(i32 %14, i1 true)
  %16 = zext nneg i32 %15 to i64
  %17 = shl nuw nsw i64 %16, 3
  %.biased.i = add nuw nsw i64 %17, 31
  %.0.i = and i64 %.biased.i, 34359738360
  %18 = getelementptr inbounds nuw i8, ptr %0, i64 56
  %19 = load ptr, ptr %18, align 8, !tbaa !105
  %20 = getelementptr inbounds nuw i8, ptr %19, i64 %.0.i
  store ptr %20, ptr %18, align 8, !tbaa !105
  ret void
}